target datalayout = "e-m:e-p270:32:32-p271:32:32-p272:64:64-i64:64-i128:128-f80:128-n8:16:32:64-S128"
target triple = "x86_64-pc-linux-gnu"

@proto_register_zbee_zcl_pwr_prof.ett = internal global <{ ptr, ptr, ptr, ptr, [21 x ptr] }> <{ ptr @ett_zbee_zcl_pwr_prof, ptr @ett_zbee_zcl_pwr_prof_options, ptr @ett_zbee_zcl_pwr_prof_en_format, ptr @ett_zbee_zcl_pwr_prof_sched_mode, [21 x ptr] zeroinitializer }>, align 16
@ett_zbee_zcl_pwr_prof_pwrprofiles = internal global [5 x i32] zeroinitializer, align 16
@ett_zbee_zcl_pwr_prof_enphases = internal global [16 x i32] zeroinitializer, align 16
@.str.669 = private unnamed_addr constant [25 x i8] c"ZigBee ZCL Power Profile\00", align 1
@.str.670 = private unnamed_addr constant [18 x i8] c"ZCL Power Profile\00", align 1
@.str.671 = private unnamed_addr constant [25 x i8] c"zbee_zcl_general.pwrprof\00", align 1
@proto_zbee_zcl_pwr_prof = internal global i32 0, align 4

; Function Attrs: null_pointer_is_valid sspstrong uwtable
define hidden void @proto_register_zbee_zcl_pwr_prof() #0 {
  %1 = alloca i32, align 4
  %2 = alloca i32, align 4
  call void @llvm.lifetime.start.p0(i64 4, ptr %1) #7
  call void @llvm.lifetime.start.p0(i64 4, ptr %2) #7
  store i32 0, ptr %1, align 4
  store i32 4, ptr %2, align 4
  br label %3

3:                                                ; preds = %13, %0
  %4 = load i32, ptr %1, align 4
  %5 = icmp ult i32 %4, 5
  br i1 %5, label %6, label %18

6:                                                ; preds = %3
  %7 = load i32, ptr %1, align 4
  %8 = zext i32 %7 to i64
  %9 = getelementptr [5 x i32], ptr @ett_zbee_zcl_pwr_prof_pwrprofiles, i64 0, i64 %8
  %10 = load i32, ptr %2, align 4
  %11 = zext i32 %10 to i64
  %12 = getelementptr [25 x ptr], ptr @proto_register_zbee_zcl_pwr_prof.ett, i64 0, i64 %11
  store ptr %9, ptr %12, align 8
  br label %13

13:                                               ; preds = %6
  %14 = load i32, ptr %1, align 4
  %15 = add i32 %14, 1
  store i32 %15, ptr %1, align 4
  %16 = load i32, ptr %2, align 4
  %17 = add i32 %16, 1
  store i32 %17, ptr %2, align 4
  br label %3, !llvm.loop !17

18:                                               ; preds = %3
  store i32 0, ptr %1, align 4
  br label %19

19:                                               ; preds = %29, %18
  %20 = load i32, ptr %1, align 4
  %21 = icmp ult i32 %20, 16
  br i1 %21, label %22, label %34

22:                                               ; preds = %19
  %23 = load i32, ptr %1, align 4
  %24 = zext i32 %23 to i64
  %25 = getelementptr [16 x i32], ptr @ett_zbee_zcl_pwr_prof_enphases, i64 0, i64 %24
  %26 = load i32, ptr %2, align 4
  %27 = zext i32 %26 to i64
  %28 = getelementptr [25 x ptr], ptr @proto_register_zbee_zcl_pwr_prof.ett, i64 0, i64 %27
  store ptr %25, ptr %28, align 8
  br label %29

29:                                               ; preds = %22
  %30 = load i32, ptr %1, align 4
  %31 = add i32 %30, 1
  store i32 %31, ptr %1, align 4
  %32 = load i32, ptr %2, align 4
  %33 = add i32 %32, 1
  store i32 %33, ptr %2, align 4
  br label %19, !llvm.loop !18

34:                                               ; preds = %19
  %35 = call i32 @proto_register_protocol(ptr noundef @.str.669, ptr noundef @.str.670, ptr noundef @.str.671)
  store i32 %35, ptr @proto_zbee_zcl_pwr_prof, align 4
  %36 = load i32, ptr @proto_zbee_zcl_pwr_prof, align 4
  call void @proto_register_field_array(i32 noundef %36, ptr noundef @proto_register_zbee_zcl_pwr_prof.hf, i32 noundef 36)
  call void @proto_register_subtree_array(ptr noundef @proto_register_zbee_zcl_pwr_prof.ett, i32 noundef 25)
  %37 = load i32, ptr @proto_zbee_zcl_pwr_prof, align 4
  %38 = call ptr @register_dissector(ptr noundef @.str.671, ptr noundef @dissect_zbee_zcl_pwr_prof, i32 noundef %37)
  call void @llvm.lifetime.end.p0(i64 4, ptr %2) #7
  call void @llvm.lifetime.end.p0(i64 4, ptr %1) #7
  ret void
}