; Function Attrs: null_pointer_is_valid sspstrong uwtable
define hidden void @proto_register_zbee_zcl_pwr_prof() local_unnamed_addr #0 {
  br label %1

1:                                                ; preds = %0, %1
  %indvars.iv16 = phi i64 [ 0, %0 ], [ %indvars.iv.next17, %1 ]
  %indvars.iv = phi i64 [ 4, %0 ], [ %indvars.iv.next, %1 ]
  %2 = getelementptr [5 x i32], ptr @ett_zbee_zcl_pwr_prof_pwrprofiles, i64 0, i64 %indvars.iv16
  %3 = getelementptr [25 x ptr], ptr @proto_register_zbee_zcl_pwr_prof.ett, i64 0, i64 %indvars.iv
  store ptr %2, ptr %3, align 8
  %indvars.iv.next17 = add nuw nsw i64 %indvars.iv16, 1
  %indvars.iv.next = add nuw nsw i64 %indvars.iv, 1
  %exitcond.not = icmp eq i64 %indvars.iv.next17, 5
  br i1 %exitcond.not, label %.preheader, label %1, !llvm.loop !22

.preheader:                                       ; preds = %1, %.preheader
  %indvars.iv23 = phi i64 [ %indvars.iv.next24, %.preheader ], [ 0, %1 ]
  %indvars.iv21 = phi i64 [ %indvars.iv.next22, %.preheader ], [ 9, %1 ]
  %4 = getelementptr [16 x i32], ptr @ett_zbee_zcl_pwr_prof_enphases, i64 0, i64 %indvars.iv23
  %5 = getelementptr [25 x ptr], ptr @proto_register_zbee_zcl_pwr_prof.ett, i64 0, i64 %indvars.iv21
  store ptr %4, ptr %5, align 8
  %indvars.iv.next24 = add nuw nsw i64 %indvars.iv23, 1
  %indvars.iv.next22 = add nuw nsw i64 %indvars.iv21, 1
  %exitcond28.not = icmp eq i64 %indvars.iv.next24, 16
  br i1 %exitcond28.not, label %6, label %.preheader, !llvm.loop !23

6:                                                ; preds = %.preheader
  %7 = tail call i32 @proto_register_protocol(ptr noundef nonnull @.str.669, ptr noundef nonnull @.str.670, ptr noundef nonnull @.str.671)
  store i32 %7, ptr @proto_zbee_zcl_pwr_prof, align 4
  tail call void @proto_register_field_array(i32 noundef %7, ptr noundef nonnull @proto_register_zbee_zcl_pwr_prof.hf, i32 noundef 36)
  tail call void @proto_register_subtree_array(ptr noundef nonnull @proto_register_zbee_zcl_pwr_prof.ett, i32 noundef 25)
  %8 = load i32, ptr @proto_zbee_zcl_pwr_prof, align 4
  %9 = tail call ptr @register_dissector(ptr noundef nonnull @.str.671, ptr noundef nonnull @dissect_zbee_zcl_pwr_prof, i32 noundef %8)
  ret void
}